ccopy_reg
_reconstructor
p0
(cposture
PostureRecognizer
p1
c__builtin__
object
p2
Ntp3
Rp4
(dp5
S'model'
p6
NsS'classifier'
p7
g0
(csklearn.neighbors.unsupervised
NearestNeighbors
p8
g2
Ntp9
Rp10
(dp11
S'n_neighbors'
p12
I5
sS'algorithm'
p13
S'auto'
p14
sS'metric'
p15
S'minkowski'
p16
sS'metric_params'
p17
NsS'p'
p18
I2
sS'radius'
p19
F1.0
sS'leaf_size'
p20
I30
sS'_fit_method'
p21
NsS'_tree'
p22
NsS'_fit_X'
p23
Nsbsb.